target datalayout = "e-m:e-p270:32:32-p271:32:32-p272:64:64-i64:64-i128:128-f80:128-n8:16:32:64-S128"
target triple = "x86_64-unknown-linux-gnu"

%"class.QuantLib::Date" = type { i64 }
%"class.QuantLib::Bond::Price" = type <{ double, i32, [4 x i8] }>
%"class.QuantLib::NewtonSafe" = type { %"class.QuantLib::Solver1D.base", [6 x i8] }
%"class.QuantLib::Solver1D.base" = type <{ double, double, double, double, double, i64, i64, double, double, i8, i8 }>
%"class.QuantLib::Solver1D" = type <{ double, double, double, double, double, i64, i64, double, double, i8, i8, [6 x i8] }>

; Function Attrs: mustprogress nounwind uwtable
define linkonce_odr void @_ZN8QuantLib8Solver1DINS_10NewtonSafeEEC2Ev(ptr noundef nonnull align 8 dereferenceable(74) %this) unnamed_addr #3 comdat align 2 {
entry:
  %this.addr = alloca ptr, align 8
  store ptr %this, ptr %this.addr, align 8, !tbaa !3
  %this1 = load ptr, ptr %this.addr, align 8
  %maxEvaluations_ = getelementptr inbounds nuw %"class.QuantLib::Solver1D", ptr %this1, i32 0, i32 5
  store i64 100, ptr %maxEvaluations_, align 8, !tbaa !24
  %lowerBound_ = getelementptr inbounds nuw %"class.QuantLib::Solver1D", ptr %this1, i32 0, i32 7
  store double 0.000000e+00, ptr %lowerBound_, align 8, !tbaa !37
  %upperBound_ = getelementptr inbounds nuw %"class.QuantLib::Solver1D", ptr %this1, i32 0, i32 8
  store double 0.000000e+00, ptr %upperBound_, align 8, !tbaa !38
  %lowerBoundEnforced_ = getelementptr inbounds nuw %"class.QuantLib::Solver1D", ptr %this1, i32 0, i32 9
  store i8 0, ptr %lowerBoundEnforced_, align 8, !tbaa !39
  %upperBoundEnforced_ = getelementptr inbounds nuw %"class.QuantLib::Solver1D", ptr %this1, i32 0, i32 10
  store i8 0, ptr %upperBoundEnforced_, align 1, !tbaa !40
  ret void
}

; Function Attrs: inlinehint mustprogress nounwind uwtable
define linkonce_odr void @_ZN8QuantLib8Solver1DINS_10NewtonSafeEE17setMaxEvaluationsEm(ptr noundef nonnull align 8 dereferenceable(74) %this, i64 noundef %evaluations) #6 comdat align 2 {
entry:
  %this.addr = alloca ptr, align 8
  %evaluations.addr = alloca i64, align 8
  store ptr %this, ptr %this.addr, align 8, !tbaa !3
  store i64 %evaluations, ptr %evaluations.addr, align 8, !tbaa !8
  %this1 = load ptr, ptr %this.addr, align 8
  %0 = load i64, ptr %evaluations.addr, align 8, !tbaa !8
  %maxEvaluations_ = getelementptr inbounds nuw %"class.QuantLib::Solver1D", ptr %this1, i32 0, i32 5
  store i64 %0, ptr %maxEvaluations_, align 8, !tbaa !24
  ret void
}

; Function Attrs: inlinehint mustprogress nounwind uwtable
define linkonce_odr void @_ZN8QuantLib10NewtonSafeC2Ev(ptr noundef nonnull align 8 dereferenceable(74) %this) unnamed_addr #6 comdat align 2 {
entry:
  %this.addr = alloca ptr, align 8
  store ptr %this, ptr %this.addr, align 8, !tbaa !3
  %this1 = load ptr, ptr %this.addr, align 8
  call void @_ZN8QuantLib8Solver1DINS_10NewtonSafeEEC2Ev(ptr noundef nonnull align 8 dereferenceable(74) %this1) #14
  ret void
}

; Function Attrs: mustprogress uwtable
define noundef double @_ZN8QuantLib13BondFunctions5yieldERKNS_4BondENS1_5PriceERKNS_10DayCounterENS_11CompoundingENS_9FrequencyENS_4DateEdmd(ptr noundef nonnull align 8 dereferenceable(248) %bond, double %price.coerce0, i32 %price.coerce1, ptr noundef nonnull align 8 dereferenceable(16) %dayCounter, i32 noundef %compounding, i32 noundef %frequency, i64 %settlement.coerce, double noundef %accuracy, i64 noundef %maxIterations, double noundef %guess) #4 align 2 {
entry:
  %price = alloca %"class.QuantLib::Bond::Price", align 8
  %settlement = alloca %"class.QuantLib::Date", align 8
  %bond.addr = alloca ptr, align 8
  %dayCounter.addr = alloca ptr, align 8
  %compounding.addr = alloca i32, align 4
  %frequency.addr = alloca i32, align 4
  %accuracy.addr = alloca double, align 8
  %maxIterations.addr = alloca i64, align 8
  %guess.addr = alloca double, align 8
  %solver = alloca %"class.QuantLib::NewtonSafe", align 8
  %agg.tmp = alloca %"class.QuantLib::Bond::Price", align 8
  %agg.tmp1 = alloca %"class.QuantLib::Date", align 8
  %0 = getelementptr inbounds nuw { double, i32 }, ptr %price, i32 0, i32 0
  store double %price.coerce0, ptr %0, align 8
  %1 = getelementptr inbounds nuw { double, i32 }, ptr %price, i32 0, i32 1
  store i32 %price.coerce1, ptr %1, align 8
  %coerce.dive = getelementptr inbounds nuw %"class.QuantLib::Date", ptr %settlement, i32 0, i32 0
  store i64 %settlement.coerce, ptr %coerce.dive, align 8
  store ptr %bond, ptr %bond.addr, align 8, !tbaa !3
  store ptr %dayCounter, ptr %dayCounter.addr, align 8, !tbaa !3
  store i32 %compounding, ptr %compounding.addr, align 4, !tbaa !19
  store i32 %frequency, ptr %frequency.addr, align 4, !tbaa !21
  store double %accuracy, ptr %accuracy.addr, align 8, !tbaa !12
  store i64 %maxIterations, ptr %maxIterations.addr, align 8, !tbaa !8
  store double %guess, ptr %guess.addr, align 8, !tbaa !12
  call void @llvm.lifetime.start.p0(i64 80, ptr %solver) #14
  call void @_ZN8QuantLib10NewtonSafeC2Ev(ptr noundef nonnull align 8 dereferenceable(74) %solver) #14
  %2 = load i64, ptr %maxIterations.addr, align 8, !tbaa !8
  call void @_ZN8QuantLib8Solver1DINS_10NewtonSafeEE17setMaxEvaluationsEm(ptr noundef nonnull align 8 dereferenceable(74) %solver, i64 noundef %2)
  %3 = load ptr, ptr %bond.addr, align 8, !tbaa !3
  call void @llvm.memcpy.p0.p0.i64(ptr align 8 %agg.tmp, ptr align 8 %price, i64 16, i1 false), !tbaa.struct !23
  %4 = load ptr, ptr %dayCounter.addr, align 8, !tbaa !3
  %5 = load i32, ptr %compounding.addr, align 4, !tbaa !19
  %6 = load i32, ptr %frequency.addr, align 4, !tbaa !21
  call void @llvm.memcpy.p0.p0.i64(ptr align 8 %agg.tmp1, ptr align 8 %settlement, i64 8, i1 false), !tbaa.struct !7
  %7 = load double, ptr %accuracy.addr, align 8, !tbaa !12
  %8 = load double, ptr %guess.addr, align 8, !tbaa !12
  %9 = getelementptr inbounds nuw { double, i32 }, ptr %agg.tmp, i32 0, i32 0
  %10 = load double, ptr %9, align 8
  %11 = getelementptr inbounds nuw { double, i32 }, ptr %agg.tmp, i32 0, i32 1
  %12 = load i32, ptr %11, align 8
  %coerce.dive2 = getelementptr inbounds nuw %"class.QuantLib::Date", ptr %agg.tmp1, i32 0, i32 0
  %13 = load i64, ptr %coerce.dive2, align 8
  %call = call noundef double @_ZN8QuantLib13BondFunctions5yieldINS_10NewtonSafeEEEdRKT_RKNS_4BondENS6_5PriceERKNS_10DayCounterENS_11CompoundingENS_9FrequencyENS_4DateEdd(ptr noundef nonnull align 8 dereferenceable(74) %solver, ptr noundef nonnull align 8 dereferenceable(248) %3, double %10, i32 %12, ptr noundef nonnull align 8 dereferenceable(16) %4, i32 noundef %5, i32 noundef %6, i64 %13, double noundef %7, double noundef %8)
  call void @llvm.lifetime.end.p0(i64 80, ptr %solver) #14
  ret double %call
}