; Function Attrs: mustprogress uwtable
define noundef double @_ZN8QuantLib13BondFunctions5yieldERKNS_4BondENS1_5PriceERKNS_10DayCounterENS_11CompoundingENS_9FrequencyENS_4DateEdmd(ptr noundef nonnull align 8 dereferenceable(248) %bond, double %price.coerce0, i32 %price.coerce1, ptr noundef nonnull align 8 dereferenceable(16) %dayCounter, i32 noundef %compounding, i32 noundef %frequency, i64 %settlement.coerce, double noundef %accuracy, i64 noundef %maxIterations, double noundef %guess) local_unnamed_addr #3 align 2 {
entry:
  %solver = alloca %"class.QuantLib::NewtonSafe", align 8
  call void @llvm.lifetime.start.p0(i64 80, ptr nonnull %solver) #16
  %maxEvaluations_.i.i = getelementptr inbounds nuw i8, ptr %solver, i64 40
  %lowerBound_.i.i = getelementptr inbounds nuw i8, ptr %solver, i64 56
  call void @llvm.memset.p0.i64(ptr noundef nonnull align 8 dereferenceable(18) %lowerBound_.i.i, i8 0, i64 18, i1 false)
  store i64 %maxIterations, ptr %maxEvaluations_.i.i, align 8, !tbaa !27
  %call = call noundef double @_ZN8QuantLib13BondFunctions5yieldINS_10NewtonSafeEEEdRKT_RKNS_4BondENS6_5PriceERKNS_10DayCounterENS_11CompoundingENS_9FrequencyENS_4DateEdd(ptr noundef nonnull align 8 dereferenceable(74) %solver, ptr noundef nonnull align 8 dereferenceable(248) %bond, double %price.coerce0, i32 %price.coerce1, ptr noundef nonnull align 8 dereferenceable(16) %dayCounter, i32 noundef %compounding, i32 noundef %frequency, i64 %settlement.coerce, double noundef %accuracy, double noundef %guess)
  call void @llvm.lifetime.end.p0(i64 80, ptr nonnull %solver) #16
  ret double %call
}